target datalayout = "e-m:e-p270:32:32-p271:32:32-p272:64:64-i64:64-i128:128-f80:128-n8:16:32:64-S128"
target triple = "x86_64-pc-linux-gnu"

%struct.ParseState = type { ptr, ptr, i32, i32, ptr, ptr, ptr, ptr, ptr, ptr, i8, ptr, ptr, ptr, ptr, ptr, ptr, i8, ptr, i32, i32, ptr, ptr, i8, i8, ptr, i8, i8, i8, i8, i8, ptr, ptr, ptr, ptr, ptr, ptr }
%struct.ForEachState = type { ptr, i32 }
%struct.List = type { i32, i32, i32, ptr, [0 x %union.ListCell] }
%union.ListCell = type { ptr }
%struct.ParseNamespaceItem = type { ptr, ptr, i32, ptr, ptr, i8, i8, i8, i8, i32 }
%struct.Alias = type { i32, ptr, ptr }

@.str.1 = private unnamed_addr constant [17 x i8] c"parse_relation.c\00", align 1
@.str.9 = private unnamed_addr constant [35 x i8] c"column reference \22%s\22 is ambiguous\00", align 1
@__func__.colNameToVar = private unnamed_addr constant [13 x i8] c"colNameToVar\00", align 1
@.str.51 = private unnamed_addr constant [54 x i8] c"invalid reference to FROM-clause entry for table \22%s\22\00", align 1
@.str.53 = private unnamed_addr constant [91 x i8] c"There is an entry for table \22%s\22, but it cannot be referenced from this part of the query.\00", align 1
@.str.69 = private unnamed_addr constant [71 x i8] c"The combining JOIN type must be INNER or LEFT for a LATERAL reference.\00", align 1
@__func__.check_lateral_ref_ok = private unnamed_addr constant [21 x i8] c"check_lateral_ref_ok\00", align 1

; Function Attrs: nounwind uwtable
define internal void @check_lateral_ref_ok(ptr noundef %0, ptr noundef %1, i32 noundef %2) #0 {
  %4 = alloca ptr, align 8
  %5 = alloca ptr, align 8
  %6 = alloca i32, align 4
  %7 = alloca ptr, align 8
  %8 = alloca ptr, align 8
  store ptr %0, ptr %4, align 8
  store ptr %1, ptr %5, align 8
  store i32 %2, ptr %6, align 4
  %9 = load ptr, ptr %5, align 8
  %10 = getelementptr inbounds nuw %struct.ParseNamespaceItem, ptr %9, i32 0, i32 7
  %11 = load i8, ptr %10, align 2, !range !6, !noundef !7
  %12 = trunc i8 %11 to i1
  br i1 %12, label %13, label %60

13:                                               ; preds = %3
  %14 = load ptr, ptr %5, align 8
  %15 = getelementptr inbounds nuw %struct.ParseNamespaceItem, ptr %14, i32 0, i32 8
  %16 = load i8, ptr %15, align 1, !range !6, !noundef !7
  %17 = trunc i8 %16 to i1
  br i1 %17, label %60, label %18

18:                                               ; preds = %13
  call void @llvm.lifetime.start.p0(i64 8, ptr %7) #8
  %19 = load ptr, ptr %5, align 8
  %20 = getelementptr inbounds nuw %struct.ParseNamespaceItem, ptr %19, i32 0, i32 1
  %21 = load ptr, ptr %20, align 8
  store ptr %21, ptr %7, align 8
  call void @llvm.lifetime.start.p0(i64 8, ptr %8) #8
  %22 = load ptr, ptr %5, align 8
  %23 = getelementptr inbounds nuw %struct.ParseNamespaceItem, ptr %22, i32 0, i32 0
  %24 = load ptr, ptr %23, align 8
  %25 = getelementptr inbounds nuw %struct.Alias, ptr %24, i32 0, i32 1
  %26 = load ptr, ptr %25, align 8
  store ptr %26, ptr %8, align 8
  br label %27

27:                                               ; preds = %18
  br i1 true, label %28, label %30

28:                                               ; preds = %27
  %29 = call zeroext i1 @errstart_cold(i32 noundef 21, ptr noundef null) #9
  br i1 %29, label %32, label %57

30:                                               ; preds = %27
  %31 = call zeroext i1 @errstart(i32 noundef 21, ptr noundef null)
  br i1 %31, label %32, label %57

32:                                               ; preds = %30, %28
  %33 = call i32 @errcode(i32 noundef 393348)
  %34 = load ptr, ptr %8, align 8
  %35 = call i32 (ptr, ...) @errmsg(ptr noundef @.str.51, ptr noundef %34)
  %36 = load ptr, ptr %4, align 8
  %37 = getelementptr inbounds nuw %struct.ParseState, ptr %36, i32 0, i32 15
  %38 = load ptr, ptr %37, align 8
  %39 = icmp ne ptr %38, null
  br i1 %39, label %40, label %51

40:                                               ; preds = %32
  %41 = load ptr, ptr %7, align 8
  %42 = load ptr, ptr %4, align 8
  %43 = getelementptr inbounds nuw %struct.ParseState, ptr %42, i32 0, i32 15
  %44 = load ptr, ptr %43, align 8
  %45 = getelementptr inbounds nuw %struct.ParseNamespaceItem, ptr %44, i32 0, i32 1
  %46 = load ptr, ptr %45, align 8
  %47 = icmp eq ptr %41, %46
  br i1 %47, label %48, label %51

48:                                               ; preds = %40
  %49 = load ptr, ptr %8, align 8
  %50 = call i32 (ptr, ...) @errhint(ptr noundef @.str.53, ptr noundef %49)
  br label %53

51:                                               ; preds = %40, %32
  %52 = call i32 (ptr, ...) @errdetail(ptr noundef @.str.69)
  br label %53

53:                                               ; preds = %51, %48
  %54 = load ptr, ptr %4, align 8
  %55 = load i32, ptr %6, align 4
  %56 = call i32 @parser_errposition(ptr noundef %54, i32 noundef %55)
  call void @errfinish(ptr noundef @.str.1, i32 noundef 509, ptr noundef @__func__.check_lateral_ref_ok)
  br label %57

57:                                               ; preds = %53, %30, %28
  unreachable

58:                                               ; No predecessors!
  br label %59

59:                                               ; preds = %58
  call void @llvm.lifetime.end.p0(i64 8, ptr %8) #8
  call void @llvm.lifetime.end.p0(i64 8, ptr %7) #8
  br label %60

60:                                               ; preds = %59, %13, %3
  ret void
}

; Function Attrs: nounwind uwtable
define dso_local ptr @colNameToVar(ptr noundef %0, ptr noundef %1, i1 noundef zeroext %2, i32 noundef %3) #0 {
  %5 = alloca ptr, align 8
  %6 = alloca ptr, align 8
  %7 = alloca i8, align 1
  %8 = alloca i32, align 4
  %9 = alloca ptr, align 8
  %10 = alloca i32, align 4
  %11 = alloca ptr, align 8
  %12 = alloca ptr, align 8
  %13 = alloca %struct.ForEachState, align 8
  %14 = alloca i32, align 4
  %15 = alloca ptr, align 8
  %16 = alloca ptr, align 8
  store ptr %0, ptr %5, align 8
  store ptr %1, ptr %6, align 8
  %17 = zext i1 %2 to i8
  store i8 %17, ptr %7, align 1
  store i32 %3, ptr %8, align 4
  call void @llvm.lifetime.start.p0(i64 8, ptr %9) #8
  store ptr null, ptr %9, align 8
  call void @llvm.lifetime.start.p0(i64 4, ptr %10) #8
  store i32 0, ptr %10, align 4
  call void @llvm.lifetime.start.p0(i64 8, ptr %11) #8
  %18 = load ptr, ptr %5, align 8
  store ptr %18, ptr %11, align 8
  br label %19

19:                                               ; preds = %130, %4
  %20 = load ptr, ptr %5, align 8
  %21 = icmp ne ptr %20, null
  br i1 %21, label %22, label %131

22:                                               ; preds = %19
  call void @llvm.lifetime.start.p0(i64 8, ptr %12) #8
  call void @llvm.lifetime.start.p0(i64 16, ptr %13) #8
  %23 = getelementptr inbounds nuw %struct.ForEachState, ptr %13, i32 0, i32 0
  %24 = load ptr, ptr %5, align 8
  %25 = getelementptr inbounds nuw %struct.ParseState, ptr %24, i32 0, i32 9
  %26 = load ptr, ptr %25, align 8
  store ptr %26, ptr %23, align 8
  %27 = getelementptr inbounds nuw %struct.ForEachState, ptr %13, i32 0, i32 1
  store i32 0, ptr %27, align 8
  %28 = getelementptr i8, ptr %13, i64 12
  call void @llvm.memset.p0.i64(ptr align 4 %28, i8 0, i64 4, i1 false)
  br label %29

29:                                               ; preds = %111, %22
  %30 = getelementptr inbounds nuw %struct.ForEachState, ptr %13, i32 0, i32 0
  %31 = load ptr, ptr %30, align 8
  %32 = icmp ne ptr %31, null
  br i1 %32, label %33, label %50

33:                                               ; preds = %29
  %34 = getelementptr inbounds nuw %struct.ForEachState, ptr %13, i32 0, i32 1
  %35 = load i32, ptr %34, align 8
  %36 = getelementptr inbounds nuw %struct.ForEachState, ptr %13, i32 0, i32 0
  %37 = load ptr, ptr %36, align 8
  %38 = getelementptr inbounds nuw %struct.List, ptr %37, i32 0, i32 1
  %39 = load i32, ptr %38, align 4
  %40 = icmp slt i32 %35, %39
  br i1 %40, label %41, label %50

41:                                               ; preds = %33
  %42 = getelementptr inbounds nuw %struct.ForEachState, ptr %13, i32 0, i32 0
  %43 = load ptr, ptr %42, align 8
  %44 = getelementptr inbounds nuw %struct.List, ptr %43, i32 0, i32 3
  %45 = load ptr, ptr %44, align 8
  %46 = getelementptr inbounds nuw %struct.ForEachState, ptr %13, i32 0, i32 1
  %47 = load i32, ptr %46, align 8
  %48 = sext i32 %47 to i64
  %49 = getelementptr inbounds %union.ListCell, ptr %45, i64 %48
  store ptr %49, ptr %12, align 8
  br label %51

50:                                               ; preds = %33, %29
  store ptr null, ptr %12, align 8
  br label %51

51:                                               ; preds = %50, %41
  %52 = phi i32 [ 1, %41 ], [ 0, %50 ]
  %53 = icmp ne i32 %52, 0
  br i1 %53, label %55, label %54

54:                                               ; preds = %51
  store i32 4, ptr %14, align 4
  call void @llvm.lifetime.end.p0(i64 16, ptr %13) #8
  br label %115

55:                                               ; preds = %51
  call void @llvm.lifetime.start.p0(i64 8, ptr %15) #8
  %56 = load ptr, ptr %12, align 8
  %57 = load ptr, ptr %56, align 8
  store ptr %57, ptr %15, align 8
  call void @llvm.lifetime.start.p0(i64 8, ptr %16) #8
  %58 = load ptr, ptr %15, align 8
  %59 = getelementptr inbounds nuw %struct.ParseNamespaceItem, ptr %58, i32 0, i32 6
  %60 = load i8, ptr %59, align 1, !range !6, !noundef !7
  %61 = trunc i8 %60 to i1
  br i1 %61, label %63, label %62

62:                                               ; preds = %55
  store i32 6, ptr %14, align 4
  br label %108

63:                                               ; preds = %55
  %64 = load ptr, ptr %15, align 8
  %65 = getelementptr inbounds nuw %struct.ParseNamespaceItem, ptr %64, i32 0, i32 7
  %66 = load i8, ptr %65, align 2, !range !6, !noundef !7
  %67 = trunc i8 %66 to i1
  br i1 %67, label %68, label %74

68:                                               ; preds = %63
  %69 = load ptr, ptr %5, align 8
  %70 = getelementptr inbounds nuw %struct.ParseState, ptr %69, i32 0, i32 10
  %71 = load i8, ptr %70, align 8, !range !6, !noundef !7
  %72 = trunc i8 %71 to i1
  br i1 %72, label %74, label %73

73:                                               ; preds = %68
  store i32 6, ptr %14, align 4
  br label %108

74:                                               ; preds = %68, %63
  %75 = load ptr, ptr %11, align 8
  %76 = load ptr, ptr %15, align 8
  %77 = load i32, ptr %10, align 4
  %78 = load ptr, ptr %6, align 8
  %79 = load i32, ptr %8, align 4
  %80 = call ptr @scanNSItemForColumn(ptr noundef %75, ptr noundef %76, i32 noundef %77, ptr noundef %78, i32 noundef %79)
  store ptr %80, ptr %16, align 8
  %81 = load ptr, ptr %16, align 8
  %82 = icmp ne ptr %81, null
  br i1 %82, label %83, label %107

83:                                               ; preds = %74
  %84 = load ptr, ptr %9, align 8
  %85 = icmp ne ptr %84, null
  br i1 %85, label %86, label %102

86:                                               ; preds = %83
  br label %87

87:                                               ; preds = %86
  br i1 true, label %88, label %90

88:                                               ; preds = %87
  %89 = call zeroext i1 @errstart_cold(i32 noundef 21, ptr noundef null) #9
  br i1 %89, label %92, label %99

90:                                               ; preds = %87
  %91 = call zeroext i1 @errstart(i32 noundef 21, ptr noundef null)
  br i1 %91, label %92, label %99

92:                                               ; preds = %90, %88
  %93 = call i32 @errcode(i32 noundef 33583236)
  %94 = load ptr, ptr %6, align 8
  %95 = call i32 (ptr, ...) @errmsg(ptr noundef @.str.9, ptr noundef %94)
  %96 = load ptr, ptr %5, align 8
  %97 = load i32, ptr %8, align 4
  %98 = call i32 @parser_errposition(ptr noundef %96, i32 noundef %97)
  call void @errfinish(ptr noundef @.str.1, i32 noundef 932, ptr noundef @__func__.colNameToVar)
  br label %99

99:                                               ; preds = %92, %90, %88
  unreachable

100:                                              ; No predecessors!
  br label %101

101:                                              ; preds = %100
  br label %102

102:                                              ; preds = %101, %83
  %103 = load ptr, ptr %5, align 8
  %104 = load ptr, ptr %15, align 8
  %105 = load i32, ptr %8, align 4
  call void @check_lateral_ref_ok(ptr noundef %103, ptr noundef %104, i32 noundef %105)
  %106 = load ptr, ptr %16, align 8
  store ptr %106, ptr %9, align 8
  br label %107

107:                                              ; preds = %102, %74
  store i32 0, ptr %14, align 4
  br label %108

108:                                              ; preds = %107, %73, %62
  call void @llvm.lifetime.end.p0(i64 8, ptr %16) #8
  call void @llvm.lifetime.end.p0(i64 8, ptr %15) #8
  %109 = load i32, ptr %14, align 4
  switch i32 %109, label %133 [
    i32 0, label %110
    i32 6, label %111
  ]

110:                                              ; preds = %108
  br label %111

111:                                              ; preds = %110, %108
  %112 = getelementptr inbounds nuw %struct.ForEachState, ptr %13, i32 0, i32 1
  %113 = load i32, ptr %112, align 8
  %114 = add i32 %113, 1
  store i32 %114, ptr %112, align 8
  br label %29, !llvm.loop !22

115:                                              ; preds = %54
  %116 = load ptr, ptr %9, align 8
  %117 = icmp ne ptr %116, null
  br i1 %117, label %121, label %118

118:                                              ; preds = %115
  %119 = load i8, ptr %7, align 1, !range !6, !noundef !7
  %120 = trunc i8 %119 to i1
  br i1 %120, label %121, label %122

121:                                              ; preds = %118, %115
  store i32 3, ptr %14, align 4
  br label %128

122:                                              ; preds = %118
  %123 = load ptr, ptr %5, align 8
  %124 = getelementptr inbounds nuw %struct.ParseState, ptr %123, i32 0, i32 0
  %125 = load ptr, ptr %124, align 8
  store ptr %125, ptr %5, align 8
  %126 = load i32, ptr %10, align 4
  %127 = add i32 %126, 1
  store i32 %127, ptr %10, align 4
  store i32 0, ptr %14, align 4
  br label %128

128:                                              ; preds = %122, %121
  call void @llvm.lifetime.end.p0(i64 8, ptr %12) #8
  %129 = load i32, ptr %14, align 4
  switch i32 %129, label %133 [
    i32 0, label %130
    i32 3, label %131
  ]

130:                                              ; preds = %128
  br label %19, !llvm.loop !23

131:                                              ; preds = %128, %19
  %132 = load ptr, ptr %9, align 8
  store i32 1, ptr %14, align 4
  call void @llvm.lifetime.end.p0(i64 8, ptr %11) #8
  call void @llvm.lifetime.end.p0(i64 4, ptr %10) #8
  call void @llvm.lifetime.end.p0(i64 8, ptr %9) #8
  ret ptr %132

133:                                              ; preds = %128, %108
  unreachable
}