; Function Attrs: nounwind uwtable
define dso_local ptr @colNameToVar(ptr noundef %0, ptr noundef %1, i1 noundef zeroext %2, i32 noundef %3) local_unnamed_addr #0 {
.split69:
  %.not70 = icmp eq ptr %0, null
  br i1 %.not70, label %.thread45, label %.lr.ph76

.lr.ph76:                                         ; preds = %.split69, %61
  %.073 = phi ptr [ %62, %61 ], [ %0, %.split69 ]
  %.03371 = phi i32 [ %63, %61 ], [ 0, %.split69 ]
  %4 = getelementptr inbounds nuw i8, ptr %.073, i64 64
  %5 = load ptr, ptr %4, align 8
  %.not38 = icmp eq ptr %5, null
  br i1 %.not38, label %._crit_edge, label %.lr.ph

.lr.ph:                                           ; preds = %.lr.ph76
  %6 = getelementptr inbounds nuw i8, ptr %5, i64 4
  %7 = getelementptr inbounds nuw i8, ptr %5, i64 16
  %8 = getelementptr inbounds nuw i8, ptr %.073, i64 72
  %9 = load i32, ptr %6, align 4
  %10 = icmp sgt i32 %9, 0
  br i1 %10, label %.lr.ph67, label %._crit_edge

._crit_edge:                                      ; preds = %check_lateral_ref_ok.exit, %.lr.ph, %.lr.ph76
  %.2.lcssa = phi ptr [ null, %.lr.ph76 ], [ null, %.lr.ph ], [ %.3, %check_lateral_ref_ok.exit ]
  %.not40 = icmp ne ptr %.2.lcssa, null
  %brmerge = or i1 %2, %.not40
  br i1 %brmerge, label %.thread45, label %61

.lr.ph67:                                         ; preds = %.lr.ph, %check_lateral_ref_ok.exit
  %indvars.iv = phi i64 [ %indvars.iv.next, %check_lateral_ref_ok.exit ], [ 0, %.lr.ph ]
  %.25665 = phi ptr [ %.3, %check_lateral_ref_ok.exit ], [ null, %.lr.ph ]
  %11 = load ptr, ptr %7, align 8
  %12 = getelementptr inbounds nuw %union.ListCell, ptr %11, i64 %indvars.iv
  %13 = load ptr, ptr %12, align 8
  %14 = getelementptr inbounds nuw i8, ptr %13, i64 41
  %15 = load i8, ptr %14, align 1, !range !4, !noundef !5
  %16 = trunc nuw i8 %15 to i1
  br i1 %16, label %17, label %check_lateral_ref_ok.exit

17:                                               ; preds = %.lr.ph67
  %18 = getelementptr inbounds nuw i8, ptr %13, i64 42
  %19 = load i8, ptr %18, align 2, !range !4, !noundef !5
  %20 = trunc nuw i8 %19 to i1
  br i1 %20, label %21, label %24

21:                                               ; preds = %17
  %22 = load i8, ptr %8, align 8, !range !4, !noundef !5
  %23 = trunc nuw i8 %22 to i1
  br i1 %23, label %24, label %check_lateral_ref_ok.exit

24:                                               ; preds = %21, %17
  %25 = tail call ptr @scanNSItemForColumn(ptr noundef nonnull %0, ptr noundef nonnull %13, i32 noundef %.03371, ptr noundef %1, i32 noundef %3)
  %.not41 = icmp eq ptr %25, null
  br i1 %.not41, label %check_lateral_ref_ok.exit, label %26

26:                                               ; preds = %24
  %.not42 = icmp eq ptr %.25665, null
  br i1 %.not42, label %31, label %.split

.split:                                           ; preds = %26
  %27 = tail call zeroext i1 @errstart_cold(i32 noundef 21, ptr noundef null) #13
  tail call void @llvm.assume(i1 %27)
  %28 = tail call i32 @errcode(i32 noundef 33583236) #11
  %29 = tail call i32 (ptr, ...) @errmsg(ptr noundef nonnull @.str.9, ptr noundef %1) #11
  %30 = tail call i32 @parser_errposition(ptr noundef nonnull %.073, i32 noundef %3) #11
  tail call void @errfinish(ptr noundef nonnull @.str.1, i32 noundef 932, ptr noundef nonnull @__func__.colNameToVar) #11
  unreachable

31:                                               ; preds = %26
  %32 = load i8, ptr %18, align 2, !range !4, !noundef !5
  %33 = trunc nuw i8 %32 to i1
  br i1 %33, label %34, label %check_lateral_ref_ok.exit

34:                                               ; preds = %31
  %35 = getelementptr inbounds nuw i8, ptr %13, i64 43
  %36 = load i8, ptr %35, align 1, !range !4, !noundef !5
  %37 = trunc nuw i8 %36 to i1
  br i1 %37, label %check_lateral_ref_ok.exit, label %.split61

.split61:                                         ; preds = %34
  %38 = getelementptr inbounds nuw i8, ptr %13, i64 8
  %39 = load ptr, ptr %38, align 8
  %40 = load ptr, ptr %13, align 8
  %41 = getelementptr inbounds nuw i8, ptr %40, i64 8
  %42 = load ptr, ptr %41, align 8
  %43 = tail call zeroext i1 @errstart_cold(i32 noundef 21, ptr noundef null) #13
  tail call void @llvm.assume(i1 %43)
  %44 = tail call i32 @errcode(i32 noundef 393348) #11
  %45 = tail call i32 (ptr, ...) @errmsg(ptr noundef nonnull @.str.51, ptr noundef %42) #11
  %46 = getelementptr inbounds nuw i8, ptr %.073, i64 112
  %47 = load ptr, ptr %46, align 8
  %.not.i = icmp eq ptr %47, null
  br i1 %.not.i, label %54, label %48

48:                                               ; preds = %.split61
  %49 = getelementptr inbounds nuw i8, ptr %47, i64 8
  %50 = load ptr, ptr %49, align 8
  %51 = icmp eq ptr %39, %50
  br i1 %51, label %52, label %54

52:                                               ; preds = %48
  %53 = tail call i32 (ptr, ...) @errhint(ptr noundef nonnull @.str.53, ptr noundef %42) #11
  br label %56

54:                                               ; preds = %48, %.split61
  %55 = tail call i32 (ptr, ...) @errdetail(ptr noundef nonnull @.str.69) #11
  br label %56

56:                                               ; preds = %54, %52
  %57 = tail call i32 @parser_errposition(ptr noundef nonnull %.073, i32 noundef %3) #11
  tail call void @errfinish(ptr noundef nonnull @.str.1, i32 noundef 509, ptr noundef nonnull @__func__.check_lateral_ref_ok) #11
  unreachable

check_lateral_ref_ok.exit:                        ; preds = %34, %31, %24, %21, %.lr.ph67
  %.3 = phi ptr [ %.25665, %.lr.ph67 ], [ %.25665, %21 ], [ %.25665, %24 ], [ %25, %31 ], [ %25, %34 ]
  %indvars.iv.next = add nuw nsw i64 %indvars.iv, 1
  %58 = load i32, ptr %6, align 4
  %59 = sext i32 %58 to i64
  %60 = icmp slt i64 %indvars.iv.next, %59
  br i1 %60, label %.lr.ph67, label %._crit_edge

61:                                               ; preds = %._crit_edge
  %62 = load ptr, ptr %.073, align 8
  %63 = add i32 %.03371, 1
  %.not = icmp eq ptr %62, null
  br i1 %.not, label %.thread45, label %.lr.ph76

.thread45:                                        ; preds = %61, %._crit_edge, %.split69
  %.131 = phi ptr [ null, %.split69 ], [ %.2.lcssa, %._crit_edge ], [ null, %61 ]
  ret ptr %.131
}